; Function Attrs: mustprogress uwtable
define hidden void @_ZN7Imf_3_214FlatImageLevelC2ERNS_9FlatImageEiiRKN9Imath_3_23BoxINS3_4Vec2IiEEEE(ptr noundef nonnull align 8 dereferenceable(88) %this, ptr noundef nonnull align 8 dereferenceable(104) %image, i32 noundef %xLevelNumber, i32 noundef %yLevelNumber, ptr noundef nonnull align 4 dereferenceable(16) %dataWindow) unnamed_addr #3 align 2 personality ptr @__gxx_personality_v0 {
entry:
  tail call void @_ZN7Imf_3_210ImageLevelC2ERNS_5ImageEii(ptr noundef nonnull align 8 dereferenceable(40) %this, ptr noundef nonnull align 8 dereferenceable(104) %image, i32 noundef %xLevelNumber, i32 noundef %yLevelNumber)
  store ptr getelementptr inbounds ({ [11 x ptr] }, ptr @_ZTVN7Imf_3_214FlatImageLevelE, i64 0, i32 0, i64 2), ptr %this, align 8
  %0 = getelementptr inbounds i8, ptr %this, i64 48
  store i32 0, ptr %0, align 8
  %_M_parent.i.i.i.i.i = getelementptr inbounds i8, ptr %this, i64 56
  store ptr null, ptr %_M_parent.i.i.i.i.i, align 8
  %_M_left.i.i.i.i.i = getelementptr inbounds i8, ptr %this, i64 64
  store ptr %0, ptr %_M_left.i.i.i.i.i, align 8
  %_M_right.i.i.i.i.i = getelementptr inbounds i8, ptr %this, i64 72
  store ptr %0, ptr %_M_right.i.i.i.i.i, align 8
  %_M_node_count.i.i.i.i.i = getelementptr inbounds i8, ptr %this, i64 80
  store i64 0, ptr %_M_node_count.i.i.i.i.i, align 8
  invoke void @_ZN7Imf_3_210ImageLevel6resizeERKN9Imath_3_23BoxINS1_4Vec2IiEEEE(ptr noundef nonnull align 8 dereferenceable(40) %this, ptr noundef nonnull align 4 dereferenceable(16) %dataWindow)
          to label %.noexc unwind label %lpad.loopexit.split-lp

.noexc:                                           ; preds = %entry
  %1 = load ptr, ptr %_M_left.i.i.i.i.i, align 8
  %cmp.i.not3.i = icmp eq ptr %1, %0
  br i1 %cmp.i.not3.i, label %invoke.cont, label %for.body.i

for.body.i:                                       ; preds = %.noexc, %.noexc1
  %i.sroa.0.04.i = phi ptr [ %call.i.i, %.noexc1 ], [ %1, %.noexc ]
  %second.i = getelementptr inbounds i8, ptr %i.sroa.0.04.i, i64 64
  %2 = load ptr, ptr %second.i, align 8
  %vtable.i = load ptr, ptr %2, align 8
  %vfn.i = getelementptr inbounds i8, ptr %vtable.i, i64 24
  %3 = load ptr, ptr %vfn.i, align 8
  invoke void %3(ptr noundef nonnull align 8 dereferenceable(48) %2)
          to label %.noexc1 unwind label %lpad.loopexit

.noexc1:                                          ; preds = %for.body.i
  %call.i.i = tail call noundef ptr @_ZSt18_Rb_tree_incrementPSt18_Rb_tree_node_base(ptr noundef nonnull %i.sroa.0.04.i) #13
  %cmp.i.not.i = icmp eq ptr %call.i.i, %0
  br i1 %cmp.i.not.i, label %invoke.cont, label %for.body.i, !llvm.loop !4

invoke.cont:                                      ; preds = %.noexc1, %.noexc
  ret void

lpad.loopexit:                                    ; preds = %for.body.i
  %lpad.loopexit2 = landingpad { ptr, i32 }
          cleanup
  br label %lpad

lpad.loopexit.split-lp:                           ; preds = %entry
  %lpad.loopexit.split-lp3 = landingpad { ptr, i32 }
          cleanup
  br label %lpad

lpad:                                             ; preds = %lpad.loopexit.split-lp, %lpad.loopexit
  %lpad.phi = phi { ptr, i32 } [ %lpad.loopexit2, %lpad.loopexit ], [ %lpad.loopexit.split-lp3, %lpad.loopexit.split-lp ]
  %_channels = getelementptr inbounds i8, ptr %this, i64 40
  tail call void @_ZNSt3mapINSt7__cxx1112basic_stringIcSt11char_traitsIcESaIcEEEPN7Imf_3_216FlatImageChannelESt4lessIS5_ESaISt4pairIKS5_S8_EEED2Ev(ptr noundef nonnull align 8 dereferenceable(48) %_channels) #14
  tail call void @_ZN7Imf_3_210ImageLevelD2Ev(ptr noundef nonnull align 8 dereferenceable(40) %this) #14
  resume { ptr, i32 } %lpad.phi
}